(irowingphysics.rigging
rigging
p0
(dp1
S'catchangle'
p2
F-1.1000000000000001
sS'lscull'
p3
F3.4775
sS'span'
p4
F1.6000000000000001
sS'Nrowers'
p5
I4
sS'mb'
p6
F106.0
sS'roworscull'
p7
S'row'
p8
sS'lin'
p9
F1.1399999999999999
sS'_rigging__spread'
p10
F0.88
sS'bladelength'
p11
F0.54500000000000004
sS'_rigging__bladearea'
p12
F0.11739999999999999
sb.
