(irowingphysics.rigging
rigging
p0
(dp1
S'catchangle'
p2
F-1.1000000000000001
sS'lscull'
p3
F2.6299999999999999
sS'span'
p4
F1.5900000000000001
sS'Nrowers'
p5
I4
sS'mb'
p6
I52
sS'roworscull'
p7
S'scull'
p8
sS'lin'
p9
F0.89000000000000001
sS'_rigging__spread'
p10
F0.88
sS'bladelength'
p11
F0.46000000000000002
sS'_rigging__bladearea'
p12
F0.082199999999999995
sb.
