(irowingdata.rowingdata
rower
p0
(dp1
S'c2username'
p2
S'sanderroosendaal'
p3
sS'weightcategory'
p4
S'lwt'
p5
sS'max'
p6
I192
sS'tr'
p7
I167
sS'an'
p8
I180
sS'ut2'
p9
I105
sS'ut1'
p10
I146
sS'at'
p11
I160
sS'c2password'
p12
S'jilemnice'
p13
sb.